; ModuleID = 'source-C-CXX/38/721.c'
source_filename = "source-C-CXX/38/721.c"
target datalayout = "e-m:e-p270:32:32-p271:32:32-p272:64:64-i64:64-f80:128-n8:16:32:64-S128"
target triple = "x86_64-pc-linux-gnu"

%struct.student = type { [20 x i8], i32, i32, i8, i8, i32 }

@.str = private unnamed_addr constant [3 x i8] c"%d\00", align 1
@.str.1 = private unnamed_addr constant [17 x i8] c"%s %d%d %c %c %d\00", align 1
@.str.2 = private unnamed_addr constant [10 x i8] c"%s\0A%d\0A%d\0A\00", align 1

; Function Attrs: nofree nounwind sspstrong uwtable
define dso_local i32 @main() local_unnamed_addr #0 {
  %1 = alloca [100 x %struct.student], align 16
  %2 = alloca i32, align 4
  %3 = alloca [100 x i32], align 16
  %4 = getelementptr inbounds [100 x %struct.student], [100 x %struct.student]* %1, i64 0, i64 0, i32 0, i64 0
  call void @llvm.lifetime.start.p0i8(i64 3600, i8* nonnull %4) #4
  %5 = bitcast i32* %2 to i8*
  call void @llvm.lifetime.start.p0i8(i64 4, i8* nonnull %5) #4
  %6 = bitcast [100 x i32]* %3 to i8*
  call void @llvm.lifetime.start.p0i8(i64 400, i8* nonnull %6) #4
  call void @llvm.memset.p0i8.i64(i8* noundef nonnull align 16 dereferenceable(400) %6, i8 0, i64 400, i1 false)
  %7 = call i32 (i8*, ...) @__isoc99_scanf(i8* getelementptr inbounds ([3 x i8], [3 x i8]* @.str, i64 0, i64 0), i32* nonnull %2)
  %8 = load i32, i32* %2, align 4, !tbaa !5
  %9 = icmp sgt i32 %8, 0
  br i1 %9, label %14, label %147

10:                                               ; preds = %14
  %11 = icmp sgt i32 %24, 0
  br i1 %11, label %12, label %147

12:                                               ; preds = %10
  %13 = zext i32 %24 to i64
  br label %27

14:                                               ; preds = %0, %14
  %15 = phi i64 [ %23, %14 ], [ 0, %0 ]
  %16 = getelementptr inbounds [100 x %struct.student], [100 x %struct.student]* %1, i64 0, i64 %15, i32 0, i64 0
  %17 = getelementptr inbounds [100 x %struct.student], [100 x %struct.student]* %1, i64 0, i64 %15, i32 1
  %18 = getelementptr inbounds [100 x %struct.student], [100 x %struct.student]* %1, i64 0, i64 %15, i32 2
  %19 = getelementptr inbounds [100 x %struct.student], [100 x %struct.student]* %1, i64 0, i64 %15, i32 3
  %20 = getelementptr inbounds [100 x %struct.student], [100 x %struct.student]* %1, i64 0, i64 %15, i32 4
  %21 = getelementptr inbounds [100 x %struct.student], [100 x %struct.student]* %1, i64 0, i64 %15, i32 5
  %22 = call i32 (i8*, ...) @__isoc99_scanf(i8* getelementptr inbounds ([17 x i8], [17 x i8]* @.str.1, i64 0, i64 0), i8* nonnull %16, i32* nonnull %17, i32* nonnull %18, i8* nonnull %19, i8* nonnull %20, i32* nonnull %21)
  %23 = add nuw nsw i64 %15, 1
  %24 = load i32, i32* %2, align 4, !tbaa !5
  %25 = sext i32 %24 to i64
  %26 = icmp slt i64 %23, %25
  br i1 %26, label %14, label %10, !llvm.loop !9

27:                                               ; preds = %12, %76
  %28 = phi i64 [ 0, %12 ], [ %77, %76 ]
  %29 = getelementptr inbounds [100 x %struct.student], [100 x %struct.student]* %1, i64 0, i64 %28, i32 1
  %30 = load i32, i32* %29, align 4, !tbaa !11
  %31 = icmp sgt i32 %30, 80
  br i1 %31, label %32, label %64

32:                                               ; preds = %27
  %33 = getelementptr inbounds [100 x %struct.student], [100 x %struct.student]* %1, i64 0, i64 %28, i32 5
  %34 = load i32, i32* %33, align 4, !tbaa !13
  %35 = icmp sgt i32 %34, 0
  br i1 %35, label %36, label %40

36:                                               ; preds = %32
  %37 = getelementptr inbounds [100 x i32], [100 x i32]* %3, i64 0, i64 %28
  %38 = load i32, i32* %37, align 4, !tbaa !5
  %39 = add nsw i32 %38, 8000
  store i32 %39, i32* %37, align 4, !tbaa !5
  br label %40

40:                                               ; preds = %36, %32
  %41 = icmp sgt i32 %30, 85
  br i1 %41, label %42, label %64

42:                                               ; preds = %40
  %43 = getelementptr inbounds [100 x %struct.student], [100 x %struct.student]* %1, i64 0, i64 %28, i32 2
  %44 = load i32, i32* %43, align 4, !tbaa !14
  %45 = icmp sgt i32 %44, 80
  br i1 %45, label %46, label %50

46:                                               ; preds = %42
  %47 = getelementptr inbounds [100 x i32], [100 x i32]* %3, i64 0, i64 %28
  %48 = load i32, i32* %47, align 4, !tbaa !5
  %49 = add nsw i32 %48, 4000
  store i32 %49, i32* %47, align 4, !tbaa !5
  br label %50

50:                                               ; preds = %46, %42
  %51 = icmp sgt i32 %30, 90
  br i1 %51, label %52, label %56

52:                                               ; preds = %50
  %53 = getelementptr inbounds [100 x i32], [100 x i32]* %3, i64 0, i64 %28
  %54 = load i32, i32* %53, align 4, !tbaa !5
  %55 = add nsw i32 %54, 2000
  store i32 %55, i32* %53, align 4, !tbaa !5
  br label %56

56:                                               ; preds = %52, %50
  %57 = getelementptr inbounds [100 x %struct.student], [100 x %struct.student]* %1, i64 0, i64 %28, i32 4
  %58 = load i8, i8* %57, align 1, !tbaa !15
  %59 = icmp eq i8 %58, 89
  br i1 %59, label %60, label %64

60:                                               ; preds = %56
  %61 = getelementptr inbounds [100 x i32], [100 x i32]* %3, i64 0, i64 %28
  %62 = load i32, i32* %61, align 4, !tbaa !5
  %63 = add nsw i32 %62, 1000
  store i32 %63, i32* %61, align 4, !tbaa !5
  br label %64

64:                                               ; preds = %40, %27, %60, %56
  %65 = getelementptr inbounds [100 x %struct.student], [100 x %struct.student]* %1, i64 0, i64 %28, i32 2
  %66 = load i32, i32* %65, align 4, !tbaa !14
  %67 = icmp sgt i32 %66, 80
  br i1 %67, label %68, label %76

68:                                               ; preds = %64
  %69 = getelementptr inbounds [100 x %struct.student], [100 x %struct.student]* %1, i64 0, i64 %28, i32 3
  %70 = load i8, i8* %69, align 4, !tbaa !16
  %71 = icmp eq i8 %70, 89
  br i1 %71, label %72, label %76

72:                                               ; preds = %68
  %73 = getelementptr inbounds [100 x i32], [100 x i32]* %3, i64 0, i64 %28
  %74 = load i32, i32* %73, align 4, !tbaa !5
  %75 = add nsw i32 %74, 850
  store i32 %75, i32* %73, align 4, !tbaa !5
  br label %76

76:                                               ; preds = %64, %68, %72
  %77 = add nuw nsw i64 %28, 1
  %78 = icmp eq i64 %77, %13
  br i1 %78, label %79, label %27, !llvm.loop !17

79:                                               ; preds = %76
  %80 = getelementptr inbounds [100 x i32], [100 x i32]* %3, i64 0, i64 0
  %81 = load i32, i32* %80, align 16, !tbaa !5
  %82 = icmp sgt i32 %24, 1
  br i1 %82, label %83, label %147

83:                                               ; preds = %79
  %84 = getelementptr inbounds [100 x i32], [100 x i32]* %3, i64 0, i64 1
  %85 = load i32, i32* %84, align 4, !tbaa !5
  %86 = icmp sgt i32 %85, %81
  %87 = zext i1 %86 to i32
  %88 = add nsw i32 %85, %81
  %89 = icmp eq i32 %24, 2
  br i1 %89, label %140, label %90, !llvm.loop !18

90:                                               ; preds = %83
  %91 = and i64 %13, 1
  %92 = icmp eq i32 %24, 3
  br i1 %92, label %123, label %93

93:                                               ; preds = %90
  %94 = add nsw i64 %13, -2
  %95 = and i64 %94, -2
  br label %96

96:                                               ; preds = %96, %93
  %97 = phi i64 [ 2, %93 ], [ %120, %96 ]
  %98 = phi i32 [ %88, %93 ], [ %119, %96 ]
  %99 = phi i32 [ %87, %93 ], [ %118, %96 ]
  %100 = phi i64 [ %95, %93 ], [ %121, %96 ]
  %101 = sext i32 %99 to i64
  %102 = getelementptr inbounds [100 x i32], [100 x i32]* %3, i64 0, i64 %101
  %103 = load i32, i32* %102, align 4, !tbaa !5
  %104 = getelementptr inbounds [100 x i32], [100 x i32]* %3, i64 0, i64 %97
  %105 = load i32, i32* %104, align 8, !tbaa !5
  %106 = icmp sgt i32 %105, %103
  %107 = trunc i64 %97 to i32
  %108 = select i1 %106, i32 %107, i32 %99
  %109 = add nsw i32 %105, %98
  %110 = or i64 %97, 1
  %111 = sext i32 %108 to i64
  %112 = getelementptr inbounds [100 x i32], [100 x i32]* %3, i64 0, i64 %111
  %113 = load i32, i32* %112, align 4, !tbaa !5
  %114 = getelementptr inbounds [100 x i32], [100 x i32]* %3, i64 0, i64 %110
  %115 = load i32, i32* %114, align 4, !tbaa !5
  %116 = icmp sgt i32 %115, %113
  %117 = trunc i64 %110 to i32
  %118 = select i1 %116, i32 %117, i32 %108
  %119 = add nsw i32 %115, %109
  %120 = add nuw nsw i64 %97, 2
  %121 = add i64 %100, -2
  %122 = icmp eq i64 %121, 0
  br i1 %122, label %123, label %96, !llvm.loop !18

123:                                              ; preds = %96, %90
  %124 = phi i32 [ undef, %90 ], [ %118, %96 ]
  %125 = phi i32 [ undef, %90 ], [ %119, %96 ]
  %126 = phi i64 [ 2, %90 ], [ %120, %96 ]
  %127 = phi i32 [ %88, %90 ], [ %119, %96 ]
  %128 = phi i32 [ %87, %90 ], [ %118, %96 ]
  %129 = icmp eq i64 %91, 0
  br i1 %129, label %140, label %130

130:                                              ; preds = %123
  %131 = getelementptr inbounds [100 x i32], [100 x i32]* %3, i64 0, i64 %126
  %132 = load i32, i32* %131, align 4, !tbaa !5
  %133 = add nsw i32 %132, %127
  %134 = sext i32 %128 to i64
  %135 = getelementptr inbounds [100 x i32], [100 x i32]* %3, i64 0, i64 %134
  %136 = load i32, i32* %135, align 4, !tbaa !5
  %137 = icmp sgt i32 %132, %136
  %138 = trunc i64 %126 to i32
  %139 = select i1 %137, i32 %138, i32 %128
  br label %140

140:                                              ; preds = %130, %123, %83
  %141 = phi i32 [ %87, %83 ], [ %124, %123 ], [ %139, %130 ]
  %142 = phi i32 [ %88, %83 ], [ %125, %123 ], [ %133, %130 ]
  %143 = sext i32 %141 to i64
  %144 = getelementptr inbounds [100 x i32], [100 x i32]* %3, i64 0, i64 %143
  %145 = load i32, i32* %144, align 4, !tbaa !5
  %146 = sext i32 %141 to i64
  br label %147

147:                                              ; preds = %0, %10, %79, %140
  %148 = phi i32 [ %145, %140 ], [ %81, %79 ], [ 0, %10 ], [ 0, %0 ]
  %149 = phi i64 [ %146, %140 ], [ 0, %79 ], [ 0, %10 ], [ 0, %0 ]
  %150 = phi i32 [ %142, %140 ], [ %81, %79 ], [ 0, %10 ], [ 0, %0 ]
  %151 = getelementptr inbounds [100 x %struct.student], [100 x %struct.student]* %1, i64 0, i64 %149, i32 0, i64 0
  %152 = call i32 (i8*, ...) @printf(i8* nonnull dereferenceable(1) getelementptr inbounds ([10 x i8], [10 x i8]* @.str.2, i64 0, i64 0), i8* nonnull %151, i32 %148, i32 %150)
  call void @llvm.lifetime.end.p0i8(i64 400, i8* nonnull %6) #4
  call void @llvm.lifetime.end.p0i8(i64 4, i8* nonnull %5) #4
  call void @llvm.lifetime.end.p0i8(i64 3600, i8* nonnull %4) #4
  ret i32 0
}

; Function Attrs: argmemonly mustprogress nofree nosync nounwind willreturn
declare void @llvm.lifetime.start.p0i8(i64 immarg, i8* nocapture) #1

; Function Attrs: argmemonly mustprogress nofree nounwind willreturn writeonly
declare void @llvm.memset.p0i8.i64(i8* nocapture writeonly, i8, i64, i1 immarg) #2

; Function Attrs: nofree nounwind
declare noundef i32 @__isoc99_scanf(i8* nocapture noundef readonly, ...) local_unnamed_addr #3

; Function Attrs: nofree nounwind
declare noundef i32 @printf(i8* nocapture noundef readonly, ...) local_unnamed_addr #3

; Function Attrs: argmemonly mustprogress nofree nosync nounwind willreturn
declare void @llvm.lifetime.end.p0i8(i64 immarg, i8* nocapture) #1


!llvm.module.flags = !{!0, !1, !2, !3}
!llvm.ident = !{!4}

!0 = !{i32 1, !"wchar_size", i32 4}
!1 = !{i32 7, !"PIC Level", i32 2}
!2 = !{i32 7, !"PIE Level", i32 2}
!3 = !{i32 7, !"uwtable", i32 1}
!4 = !{!"clang version 13.0.0"}
!5 = !{!6, !6, i64 0}
!6 = !{!"int", !7, i64 0}
!7 = !{!"omnipotent char", !8, i64 0}
!8 = !{!"Simple C/C++ TBAA"}
!9 = distinct !{!9, !10}
!10 = !{!"llvm.loop.mustprogress"}
!11 = !{!12, !6, i64 20}
!12 = !{!"student", !7, i64 0, !6, i64 20, !6, i64 24, !7, i64 28, !7, i64 29, !6, i64 32}
!13 = !{!12, !6, i64 32}
!14 = !{!12, !6, i64 24}
!15 = !{!12, !7, i64 29}
!16 = !{!12, !7, i64 28}
!17 = distinct !{!17, !10}
!18 = distinct !{!18, !10}
